target datalayout = "e-m:e-p270:32:32-p271:32:32-p272:64:64-i64:64-i128:128-f80:128-n8:16:32:64-S128"
target triple = "x86_64-pc-linux-gnu"

%"class.pxrInternal_v0_24__pxrReserved__::VtArray" = type { %"class.pxrInternal_v0_24__pxrReserved__::Vt_ArrayBase", ptr }
%"class.pxrInternal_v0_24__pxrReserved__::Vt_ArrayBase" = type { %"struct.pxrInternal_v0_24__pxrReserved__::Vt_ShapeData", ptr }
%"struct.pxrInternal_v0_24__pxrReserved__::Vt_ShapeData" = type { i64, [3 x i32] }

; Function Attrs: mustprogress uwtable
define noundef zeroext i1 @_ZNK32pxrInternal_v0_24__pxrReserved__16UsdGeomXformable18GetResetXformStackEv(ptr noundef nonnull align 8 dereferenceable(24) %0) #0 align 2 personality ptr @__gxx_personality_v0 {
  %2 = alloca i1, align 1
  %3 = alloca ptr, align 8
  %4 = alloca %"class.pxrInternal_v0_24__pxrReserved__::VtArray", align 8
  %5 = alloca ptr, align 8
  %6 = alloca i32, align 4
  %7 = alloca i32, align 4
  store ptr %0, ptr %3, align 8
  %8 = load ptr, ptr %3, align 8
  call void @_ZN32pxrInternal_v0_24__pxrReserved__7VtArrayINS_7TfTokenEEC1Ev(ptr noundef nonnull align 8 dereferenceable(40) %4)
  %9 = invoke noundef zeroext i1 @_ZNK32pxrInternal_v0_24__pxrReserved__16UsdGeomXformable21_GetXformOpOrderValueEPNS_7VtArrayINS_7TfTokenEEE(ptr noundef nonnull align 8 dereferenceable(24) %8, ptr noundef %4)
          to label %10 unwind label %12

10:                                               ; preds = %1
  br i1 %9, label %16, label %11

11:                                               ; preds = %10
  store i1 false, ptr %2, align 1
  store i32 1, ptr %7, align 4
  br label %19

12:                                               ; preds = %16, %1
  %13 = landingpad { ptr, i32 }
          cleanup
  %14 = extractvalue { ptr, i32 } %13, 0
  store ptr %14, ptr %5, align 8
  %15 = extractvalue { ptr, i32 } %13, 1
  store i32 %15, ptr %6, align 4
  call void @_ZN32pxrInternal_v0_24__pxrReserved__7VtArrayINS_7TfTokenEED1Ev(ptr noundef nonnull align 8 dereferenceable(40) %4) #6
  br label %21

16:                                               ; preds = %10
  %17 = invoke noundef zeroext i1 @_ZN32pxrInternal_v0_24__pxrReserved__L31_XformOpOrderHasResetXformStackERKNS_7VtArrayINS_7TfTokenEEE(ptr noundef nonnull align 8 dereferenceable(40) %4)
          to label %18 unwind label %12

18:                                               ; preds = %16
  store i1 %17, ptr %2, align 1
  store i32 1, ptr %7, align 4
  br label %19

19:                                               ; preds = %18, %11
  call void @_ZN32pxrInternal_v0_24__pxrReserved__7VtArrayINS_7TfTokenEED1Ev(ptr noundef nonnull align 8 dereferenceable(40) %4) #6
  %20 = load i1, ptr %2, align 1
  ret i1 %20

21:                                               ; preds = %12
  %22 = load ptr, ptr %5, align 8
  %23 = load i32, ptr %6, align 4
  %24 = insertvalue { ptr, i32 } poison, ptr %22, 0
  %25 = insertvalue { ptr, i32 } %24, i32 %23, 1
  resume { ptr, i32 } %25
}