; Function Attrs: mustprogress uwtable
define noundef zeroext i1 @_ZNK32pxrInternal_v0_24__pxrReserved__16UsdGeomXformable18GetResetXformStackEv(ptr noundef nonnull align 8 dereferenceable(24) %0) local_unnamed_addr #0 align 2 personality ptr @__gxx_personality_v0 {
  %2 = alloca %"class.pxrInternal_v0_24__pxrReserved__::VtArray", align 8
  call void @_ZN32pxrInternal_v0_24__pxrReserved__7VtArrayINS_7TfTokenEEC1Ev(ptr noundef nonnull align 8 dereferenceable(40) %2)
  %3 = invoke noundef zeroext i1 @_ZNK32pxrInternal_v0_24__pxrReserved__16UsdGeomXformable21_GetXformOpOrderValueEPNS_7VtArrayINS_7TfTokenEEE(ptr noundef nonnull align 8 dereferenceable(24) %0, ptr noundef nonnull %2)
          to label %4 unwind label %5

4:                                                ; preds = %1
  br i1 %3, label %7, label %9

5:                                                ; preds = %7, %1
  %6 = landingpad { ptr, i32 }
          cleanup
  call void @_ZN32pxrInternal_v0_24__pxrReserved__7VtArrayINS_7TfTokenEED1Ev(ptr noundef nonnull align 8 dereferenceable(40) %2) #20
  resume { ptr, i32 } %6

7:                                                ; preds = %4
  %8 = invoke fastcc noundef zeroext i1 @_ZN32pxrInternal_v0_24__pxrReserved__L31_XformOpOrderHasResetXformStackERKNS_7VtArrayINS_7TfTokenEEE(ptr noundef nonnull align 8 dereferenceable(40) %2)
          to label %9 unwind label %5

9:                                                ; preds = %7, %4
  %.0 = phi i1 [ false, %4 ], [ %8, %7 ]
  call void @_ZN32pxrInternal_v0_24__pxrReserved__7VtArrayINS_7TfTokenEED1Ev(ptr noundef nonnull align 8 dereferenceable(40) %2) #20
  ret i1 %.0
}